target datalayout = "e-m:e-p270:32:32-p271:32:32-p272:64:64-i64:64-i128:128-f80:128-n8:16:32:64-S128"
target triple = "x86_64-unknown-linux-gnu"

; Function Attrs: mustprogress nounwind uwtable
define noundef i32 @_ZN6icu_7518NGramParser_IBM4209isLamAlefEi(ptr noundef nonnull align 8 dereferenceable(52) %this, i32 noundef %b) #0 align 2 {
entry:
  %retval = alloca i32, align 4
  %this.addr = alloca ptr, align 8
  %b.addr = alloca i32, align 4
  store ptr %this, ptr %this.addr, align 8
  store i32 %b, ptr %b.addr, align 4
  %0 = load i32, ptr %b.addr, align 4
  %cmp = icmp eq i32 %0, 178
  br i1 %cmp, label %if.then, label %lor.lhs.false

lor.lhs.false:                                    ; preds = %entry
  %1 = load i32, ptr %b.addr, align 4
  %cmp2 = icmp eq i32 %1, 179
  br i1 %cmp2, label %if.then, label %if.else

if.then:                                          ; preds = %lor.lhs.false, %entry
  store i32 71, ptr %retval, align 4
  br label %return

if.else:                                          ; preds = %lor.lhs.false
  %2 = load i32, ptr %b.addr, align 4
  %cmp3 = icmp eq i32 %2, 180
  br i1 %cmp3, label %if.then6, label %lor.lhs.false4

lor.lhs.false4:                                   ; preds = %if.else
  %3 = load i32, ptr %b.addr, align 4
  %cmp5 = icmp eq i32 %3, 181
  br i1 %cmp5, label %if.then6, label %if.else7

if.then6:                                         ; preds = %lor.lhs.false4, %if.else
  store i32 73, ptr %retval, align 4
  br label %return

if.else7:                                         ; preds = %lor.lhs.false4
  %4 = load i32, ptr %b.addr, align 4
  %cmp8 = icmp eq i32 %4, 184
  br i1 %cmp8, label %if.then11, label %lor.lhs.false9

lor.lhs.false9:                                   ; preds = %if.else7
  %5 = load i32, ptr %b.addr, align 4
  %cmp10 = icmp eq i32 %5, 185
  br i1 %cmp10, label %if.then11, label %if.else12

if.then11:                                        ; preds = %lor.lhs.false9, %if.else7
  store i32 86, ptr %retval, align 4
  br label %return

if.else12:                                        ; preds = %lor.lhs.false9
  store i32 0, ptr %retval, align 4
  br label %return

return:                                           ; preds = %if.else12, %if.then11, %if.then6, %if.then
  %6 = load i32, ptr %retval, align 4
  ret i32 %6
}