; Function Attrs: mustprogress nofree norecurse nosync nounwind willreturn memory(none) uwtable
define noundef i32 @_ZN6icu_7518NGramParser_IBM4209isLamAlefEi(ptr nocapture noundef nonnull readnone align 8 dereferenceable(52) %this, i32 noundef %b) local_unnamed_addr #1 align 2 {
entry:
  %0 = and i32 %b, -2
  switch i32 %0, label %if.else7 [
    i32 178, label %return
    i32 180, label %return.fold.split
  ]

if.else7:                                         ; preds = %entry
  %or.cond2 = icmp eq i32 %0, 184
  %. = select i1 %or.cond2, i32 86, i32 0
  br label %return

return.fold.split:                                ; preds = %entry
  br label %return

return:                                           ; preds = %entry, %return.fold.split, %if.else7
  %retval.0 = phi i32 [ 71, %entry ], [ %., %if.else7 ], [ 73, %return.fold.split ]
  ret i32 %retval.0
}